target datalayout = "e-m:e-p270:32:32-p271:32:32-p272:64:64-i64:64-i128:128-f80:128-n8:16:32:64-S128"
target triple = "x86_64-pc-linux-gnu"

@.str.12 = private unnamed_addr constant [3 x i8] c"==\00", align 1
@.str.45 = private unnamed_addr constant [7 x i8] c"memory\00", align 1

; Function Attrs: nounwind uwtable
define i32 @test_mem_eq(ptr noundef %0, i32 noundef %1, ptr noundef %2, ptr noundef %3, ptr noundef %4, i64 noundef %5, ptr noundef %6, i64 noundef %7) #0 {
  %9 = alloca i32, align 4
  %10 = alloca ptr, align 8
  %11 = alloca i32, align 4
  %12 = alloca ptr, align 8
  %13 = alloca ptr, align 8
  %14 = alloca ptr, align 8
  %15 = alloca i64, align 8
  %16 = alloca ptr, align 8
  %17 = alloca i64, align 8
  store ptr %0, ptr %10, align 8, !tbaa !3
  store i32 %1, ptr %11, align 4, !tbaa !8
  store ptr %2, ptr %12, align 8, !tbaa !3
  store ptr %3, ptr %13, align 8, !tbaa !3
  store ptr %4, ptr %14, align 8, !tbaa !17
  store i64 %5, ptr %15, align 8, !tbaa !13
  store ptr %6, ptr %16, align 8, !tbaa !17
  store i64 %7, ptr %17, align 8, !tbaa !13
  %18 = load ptr, ptr %14, align 8, !tbaa !17
  %19 = icmp eq ptr %18, null
  br i1 %19, label %20, label %24

20:                                               ; preds = %8
  %21 = load ptr, ptr %16, align 8, !tbaa !17
  %22 = icmp eq ptr %21, null
  br i1 %22, label %23, label %24

23:                                               ; preds = %20
  store i32 1, ptr %9, align 4
  br label %50

24:                                               ; preds = %20, %8
  %25 = load i64, ptr %15, align 8, !tbaa !13
  %26 = load i64, ptr %17, align 8, !tbaa !13
  %27 = icmp ne i64 %25, %26
  br i1 %27, label %40, label %28

28:                                               ; preds = %24
  %29 = load ptr, ptr %14, align 8, !tbaa !17
  %30 = icmp eq ptr %29, null
  br i1 %30, label %40, label %31

31:                                               ; preds = %28
  %32 = load ptr, ptr %16, align 8, !tbaa !17
  %33 = icmp eq ptr %32, null
  br i1 %33, label %40, label %34

34:                                               ; preds = %31
  %35 = load ptr, ptr %14, align 8, !tbaa !17
  %36 = load ptr, ptr %16, align 8, !tbaa !17
  %37 = load i64, ptr %15, align 8, !tbaa !13
  %38 = call i32 @memcmp(ptr noundef %35, ptr noundef %36, i64 noundef %37) #9
  %39 = icmp ne i32 %38, 0
  br i1 %39, label %40, label %49

40:                                               ; preds = %34, %31, %28, %24
  %41 = load ptr, ptr %10, align 8, !tbaa !3
  %42 = load i32, ptr %11, align 4, !tbaa !8
  %43 = load ptr, ptr %12, align 8, !tbaa !3
  %44 = load ptr, ptr %13, align 8, !tbaa !3
  %45 = load ptr, ptr %14, align 8, !tbaa !17
  %46 = load i64, ptr %15, align 8, !tbaa !13
  %47 = load ptr, ptr %16, align 8, !tbaa !17
  %48 = load i64, ptr %17, align 8, !tbaa !13
  call void @test_fail_memory_message(ptr noundef null, ptr noundef %41, i32 noundef %42, ptr noundef @.str.45, ptr noundef %43, ptr noundef %44, ptr noundef @.str.12, ptr noundef %45, i64 noundef %46, ptr noundef %47, i64 noundef %48)
  store i32 0, ptr %9, align 4
  br label %50

49:                                               ; preds = %34
  store i32 1, ptr %9, align 4
  br label %50

50:                                               ; preds = %49, %40, %23
  %51 = load i32, ptr %9, align 4
  ret i32 %51
}