; Function Attrs: nounwind uwtable
define range(i32 0, 2) i32 @test_mem_eq(ptr noundef %0, i32 noundef %1, ptr noundef %2, ptr noundef %3, ptr noundef %4, i64 noundef %5, ptr noundef %6, i64 noundef %7) local_unnamed_addr #0 {
  %9 = icmp eq ptr %4, null
  %10 = icmp eq ptr %6, null
  %or.cond = and i1 %9, %10
  br i1 %or.cond, label %15, label %11

11:                                               ; preds = %8
  %12 = icmp ne i64 %5, %7
  %or.cond3 = or i1 %9, %12
  %or.cond5 = or i1 %10, %or.cond3
  br i1 %or.cond5, label %14, label %13

13:                                               ; preds = %11
  %bcmp = tail call i32 @bcmp(ptr nonnull %4, ptr nonnull %6, i64 %5)
  %.not = icmp eq i32 %bcmp, 0
  br i1 %.not, label %15, label %14

14:                                               ; preds = %13, %11
  tail call void @test_fail_memory_message(ptr noundef null, ptr noundef %0, i32 noundef %1, ptr noundef nonnull @.str.45, ptr noundef %2, ptr noundef %3, ptr noundef nonnull @.str.12, ptr noundef %4, i64 noundef %5, ptr noundef %6, i64 noundef %7) #8
  br label %15

15:                                               ; preds = %13, %8, %14
  %.0 = phi i32 [ 0, %14 ], [ 1, %8 ], [ 1, %13 ]
  ret i32 %.0
}